target datalayout = "e-m:e-p270:32:32-p271:32:32-p272:64:64-i64:64-i128:128-f80:128-n8:16:32:64-S128"
target triple = "x86_64-pc-linux-gnu"

%struct.KDF_HMAC_DRBG = type { %struct.drbg_hmac_st, ptr, ptr, ptr, i64, i64, i32 }
%struct.drbg_hmac_st = type { ptr, %struct.PROV_DIGEST, i64, [64 x i8], [64 x i8] }
%struct.PROV_DIGEST = type { ptr, ptr, ptr }

; Function Attrs: nounwind uwtable
define internal i32 @hmac_drbg_kdf_derive(ptr noundef %0, ptr noundef %1, i64 noundef %2, ptr noundef %3) #0 {
  %5 = alloca i32, align 4
  %6 = alloca ptr, align 8
  %7 = alloca ptr, align 8
  %8 = alloca i64, align 8
  %9 = alloca ptr, align 8
  %10 = alloca ptr, align 8
  %11 = alloca ptr, align 8
  %12 = alloca i32, align 4
  store ptr %0, ptr %6, align 8, !tbaa !3
  store ptr %1, ptr %7, align 8, !tbaa !25
  store i64 %2, ptr %8, align 8, !tbaa !26
  store ptr %3, ptr %9, align 8, !tbaa !27
  call void @llvm.lifetime.start.p0(i64 8, ptr %10) #5
  %13 = load ptr, ptr %6, align 8, !tbaa !3
  store ptr %13, ptr %10, align 8, !tbaa !3
  call void @llvm.lifetime.start.p0(i64 8, ptr %11) #5
  %14 = load ptr, ptr %10, align 8, !tbaa !3
  %15 = getelementptr inbounds nuw %struct.KDF_HMAC_DRBG, ptr %14, i32 0, i32 0
  store ptr %15, ptr %11, align 8, !tbaa !22
  %16 = call i32 @ossl_prov_is_running()
  %17 = icmp ne i32 %16, 0
  br i1 %17, label %18, label %23

18:                                               ; preds = %4
  %19 = load ptr, ptr %6, align 8, !tbaa !3
  %20 = load ptr, ptr %9, align 8, !tbaa !27
  %21 = call i32 @hmac_drbg_kdf_set_ctx_params(ptr noundef %19, ptr noundef %20)
  %22 = icmp ne i32 %21, 0
  br i1 %22, label %24, label %23

23:                                               ; preds = %18, %4
  store i32 0, ptr %5, align 4
  store i32 1, ptr %12, align 4
  br label %74

24:                                               ; preds = %18
  %25 = load ptr, ptr %10, align 8, !tbaa !3
  %26 = getelementptr inbounds nuw %struct.KDF_HMAC_DRBG, ptr %25, i32 0, i32 6
  %27 = load i32, ptr %26, align 8, !tbaa !21
  %28 = icmp ne i32 %27, 0
  br i1 %28, label %69, label %29

29:                                               ; preds = %24
  %30 = load ptr, ptr %10, align 8, !tbaa !3
  %31 = getelementptr inbounds nuw %struct.KDF_HMAC_DRBG, ptr %30, i32 0, i32 2
  %32 = load ptr, ptr %31, align 8, !tbaa !17
  %33 = icmp eq ptr %32, null
  br i1 %33, label %65, label %34

34:                                               ; preds = %29
  %35 = load ptr, ptr %10, align 8, !tbaa !3
  %36 = getelementptr inbounds nuw %struct.KDF_HMAC_DRBG, ptr %35, i32 0, i32 4
  %37 = load i64, ptr %36, align 8, !tbaa !18
  %38 = icmp eq i64 %37, 0
  br i1 %38, label %65, label %39

39:                                               ; preds = %34
  %40 = load ptr, ptr %10, align 8, !tbaa !3
  %41 = getelementptr inbounds nuw %struct.KDF_HMAC_DRBG, ptr %40, i32 0, i32 3
  %42 = load ptr, ptr %41, align 8, !tbaa !19
  %43 = icmp eq ptr %42, null
  br i1 %43, label %65, label %44

44:                                               ; preds = %39
  %45 = load ptr, ptr %10, align 8, !tbaa !3
  %46 = getelementptr inbounds nuw %struct.KDF_HMAC_DRBG, ptr %45, i32 0, i32 5
  %47 = load i64, ptr %46, align 8, !tbaa !20
  %48 = icmp eq i64 %47, 0
  br i1 %48, label %65, label %49

49:                                               ; preds = %44
  %50 = load ptr, ptr %11, align 8, !tbaa !22
  %51 = load ptr, ptr %10, align 8, !tbaa !3
  %52 = getelementptr inbounds nuw %struct.KDF_HMAC_DRBG, ptr %51, i32 0, i32 2
  %53 = load ptr, ptr %52, align 8, !tbaa !17
  %54 = load ptr, ptr %10, align 8, !tbaa !3
  %55 = getelementptr inbounds nuw %struct.KDF_HMAC_DRBG, ptr %54, i32 0, i32 4
  %56 = load i64, ptr %55, align 8, !tbaa !18
  %57 = load ptr, ptr %10, align 8, !tbaa !3
  %58 = getelementptr inbounds nuw %struct.KDF_HMAC_DRBG, ptr %57, i32 0, i32 3
  %59 = load ptr, ptr %58, align 8, !tbaa !19
  %60 = load ptr, ptr %10, align 8, !tbaa !3
  %61 = getelementptr inbounds nuw %struct.KDF_HMAC_DRBG, ptr %60, i32 0, i32 5
  %62 = load i64, ptr %61, align 8, !tbaa !20
  %63 = call i32 @ossl_drbg_hmac_init(ptr noundef %50, ptr noundef %53, i64 noundef %56, ptr noundef %59, i64 noundef %62, ptr noundef null, i64 noundef 0)
  %64 = icmp ne i32 %63, 0
  br i1 %64, label %66, label %65

65:                                               ; preds = %49, %44, %39, %34, %29
  store i32 0, ptr %5, align 4
  store i32 1, ptr %12, align 4
  br label %74

66:                                               ; preds = %49
  %67 = load ptr, ptr %10, align 8, !tbaa !3
  %68 = getelementptr inbounds nuw %struct.KDF_HMAC_DRBG, ptr %67, i32 0, i32 6
  store i32 1, ptr %68, align 8, !tbaa !21
  br label %69

69:                                               ; preds = %66, %24
  %70 = load ptr, ptr %11, align 8, !tbaa !22
  %71 = load ptr, ptr %7, align 8, !tbaa !25
  %72 = load i64, ptr %8, align 8, !tbaa !26
  %73 = call i32 @ossl_drbg_hmac_generate(ptr noundef %70, ptr noundef %71, i64 noundef %72, ptr noundef null, i64 noundef 0)
  store i32 %73, ptr %5, align 4
  store i32 1, ptr %12, align 4
  br label %74

74:                                               ; preds = %69, %65, %23
  call void @llvm.lifetime.end.p0(i64 8, ptr %11) #5
  call void @llvm.lifetime.end.p0(i64 8, ptr %10) #5
  %75 = load i32, ptr %5, align 4
  ret i32 %75
}