; Function Attrs: nounwind uwtable
define internal i32 @hmac_drbg_kdf_derive(ptr noundef %0, ptr noundef %1, i64 noundef %2, ptr noundef %3) #0 {
  %5 = tail call i32 @ossl_prov_is_running() #5
  %.not = icmp eq i32 %5, 0
  br i1 %.not, label %32, label %6

6:                                                ; preds = %4
  %7 = tail call i32 @hmac_drbg_kdf_set_ctx_params(ptr noundef %0, ptr noundef %3)
  %.not22 = icmp eq i32 %7, 0
  br i1 %.not22, label %32, label %8

8:                                                ; preds = %6
  %9 = getelementptr inbounds nuw i8, ptr %0, i64 208
  %10 = load i32, ptr %9, align 8, !tbaa !22
  %.not23 = icmp eq i32 %10, 0
  br i1 %.not23, label %11, label %30

11:                                               ; preds = %8
  %12 = getelementptr inbounds nuw i8, ptr %0, i64 176
  %13 = load ptr, ptr %12, align 8, !tbaa !17
  %14 = icmp eq ptr %13, null
  br i1 %14, label %32, label %15

15:                                               ; preds = %11
  %16 = getelementptr inbounds nuw i8, ptr %0, i64 192
  %17 = load i64, ptr %16, align 8, !tbaa !18
  %18 = icmp eq i64 %17, 0
  br i1 %18, label %32, label %19

19:                                               ; preds = %15
  %20 = getelementptr inbounds nuw i8, ptr %0, i64 184
  %21 = load ptr, ptr %20, align 8, !tbaa !19
  %22 = icmp eq ptr %21, null
  br i1 %22, label %32, label %23

23:                                               ; preds = %19
  %24 = getelementptr inbounds nuw i8, ptr %0, i64 200
  %25 = load i64, ptr %24, align 8, !tbaa !20
  %26 = icmp eq i64 %25, 0
  br i1 %26, label %32, label %27

27:                                               ; preds = %23
  %28 = tail call i32 @ossl_drbg_hmac_init(ptr noundef nonnull %0, ptr noundef nonnull %13, i64 noundef %17, ptr noundef nonnull %21, i64 noundef %25, ptr noundef null, i64 noundef 0) #5
  %.not24 = icmp eq i32 %28, 0
  br i1 %.not24, label %32, label %29

29:                                               ; preds = %27
  store i32 1, ptr %9, align 8, !tbaa !22
  br label %30

30:                                               ; preds = %29, %8
  %31 = tail call i32 @ossl_drbg_hmac_generate(ptr noundef nonnull %0, ptr noundef %1, i64 noundef %2, ptr noundef null, i64 noundef 0) #5
  br label %32

32:                                               ; preds = %11, %15, %19, %23, %27, %4, %6, %30
  %.0 = phi i32 [ %31, %30 ], [ 0, %6 ], [ 0, %4 ], [ 0, %27 ], [ 0, %23 ], [ 0, %19 ], [ 0, %15 ], [ 0, %11 ]
  ret i32 %.0
}